; Function Attrs: nounwind uwtable
define nonnull ptr @l_Lake_Glob_matches___boxed(ptr noundef %0, ptr noundef %1) local_unnamed_addr #0 {
  %3 = ptrtoint ptr %1 to i64
  %4 = and i64 %3, 1
  %.not.i.i = icmp eq i64 %4, 0
  br i1 %.not.i.i, label %8, label %5

5:                                                ; preds = %2
  %6 = lshr i64 %3, 1
  %7 = trunc i64 %6 to i32
  br label %lean_obj_tag.exit.i

8:                                                ; preds = %2
  %9 = getelementptr i8, ptr %1, i64 4
  %.val.i.i = load i32, ptr %9, align 4
  %10 = lshr i32 %.val.i.i, 24
  br label %lean_obj_tag.exit.i

lean_obj_tag.exit.i:                              ; preds = %8, %5
  %.0.i.i = phi i32 [ %7, %5 ], [ %10, %8 ]
  %11 = getelementptr inbounds nuw i8, ptr %1, i64 8
  %12 = load ptr, ptr %11, align 8, !tbaa !4
  switch i32 %.0.i.i, label %21 [
    i32 0, label %13
    i32 1, label %15
  ]

13:                                               ; preds = %lean_obj_tag.exit.i
  %14 = tail call zeroext i8 @lean_name_eq(ptr noundef %12, ptr noundef %0) #4
  br label %l_Lake_Glob_matches.exit

15:                                               ; preds = %lean_obj_tag.exit.i
  %16 = tail call zeroext i8 @l_Lean_Name_isPrefixOf(ptr noundef %12, ptr noundef %0) #4
  %17 = icmp eq i8 %16, 0
  br i1 %17, label %l_Lake_Glob_matches.exit, label %18

18:                                               ; preds = %15
  %19 = tail call zeroext i8 @lean_name_eq(ptr noundef %12, ptr noundef %0) #4
  %20 = icmp eq i8 %19, 0
  %..i = zext i1 %20 to i8
  br label %l_Lake_Glob_matches.exit

21:                                               ; preds = %lean_obj_tag.exit.i
  %22 = tail call zeroext i8 @l_Lean_Name_isPrefixOf(ptr noundef %12, ptr noundef %0) #4
  br label %l_Lake_Glob_matches.exit

l_Lake_Glob_matches.exit:                         ; preds = %13, %15, %18, %21
  %.0.i = phi i8 [ %22, %21 ], [ %14, %13 ], [ %..i, %18 ], [ 0, %15 ]
  br i1 %.not.i.i, label %23, label %lean_dec.exit5

23:                                               ; preds = %l_Lake_Glob_matches.exit
  %24 = load i32, ptr %1, align 4, !tbaa !8
  %25 = icmp sgt i32 %24, 1
  br i1 %25, label %26, label %28, !prof !11

26:                                               ; preds = %23
  %27 = add nsw i32 %24, -1
  store i32 %27, ptr %1, align 4, !tbaa !8
  br label %lean_dec.exit5

28:                                               ; preds = %23
  %.not.i = icmp eq i32 %24, 0
  br i1 %.not.i, label %lean_dec.exit5, label %29

29:                                               ; preds = %28
  tail call void @lean_dec_ref_cold(ptr noundef nonnull %1) #4
  br label %lean_dec.exit5

lean_dec.exit5:                                   ; preds = %29, %28, %26, %l_Lake_Glob_matches.exit
  %30 = ptrtoint ptr %0 to i64
  %31 = and i64 %30, 1
  %.not8 = icmp eq i64 %31, 0
  br i1 %.not8, label %32, label %lean_dec.exit

32:                                               ; preds = %lean_dec.exit5
  %33 = load i32, ptr %0, align 4, !tbaa !8
  %34 = icmp sgt i32 %33, 1
  br i1 %34, label %35, label %37, !prof !11

35:                                               ; preds = %32
  %36 = add nsw i32 %33, -1
  store i32 %36, ptr %0, align 4, !tbaa !8
  br label %lean_dec.exit

37:                                               ; preds = %32
  %.not.i6 = icmp eq i32 %33, 0
  br i1 %.not.i6, label %lean_dec.exit, label %38

38:                                               ; preds = %37
  tail call void @lean_dec_ref_cold(ptr noundef nonnull %0) #4
  br label %lean_dec.exit

lean_dec.exit:                                    ; preds = %38, %37, %35, %lean_dec.exit5
  %39 = zext i8 %.0.i to i64
  %40 = shl nuw nsw i64 %39, 1
  %41 = or disjoint i64 %40, 1
  %42 = inttoptr i64 %41 to ptr
  ret ptr %42
}